target datalayout = "e-m:e-p270:32:32-p271:32:32-p272:64:64-i64:64-i128:128-f80:128-n8:16:32:64-S128"
target triple = "x86_64-unknown-linux-gnu"

; Function Attrs: fn_ret_thunk_extern nofree norecurse nosync nounwind null_pointer_is_valid memory(argmem: readwrite)
define dso_local i64 @mpihelp_addmul_1(ptr nocapture noundef %0, ptr nocapture noundef readonly %1, i32 noundef %2, i64 noundef %3) local_unnamed_addr #0 align 16 {
  %5 = sub i32 0, %2
  %6 = sext i32 %5 to i64
  %7 = sub nsw i64 0, %6
  %8 = getelementptr i64, ptr %0, i64 %7
  %9 = getelementptr i64, ptr %1, i64 %7
  %10 = lshr i64 %3, 32
  %11 = and i64 %3, 4294967295
  br label %12

12:                                               ; preds = %12, %4
  %13 = phi i32 [ %5, %4 ], [ %45, %12 ]
  %14 = phi i64 [ 0, %4 ], [ %44, %12 ]
  %15 = sext i32 %13 to i64
  %16 = getelementptr i64, ptr %9, i64 %15
  %17 = load i64, ptr %16, align 8
  %18 = lshr i64 %17, 32
  %19 = and i64 %17, 4294967295
  %20 = mul nuw i64 %19, %11
  %21 = mul nuw i64 %19, %10
  %22 = mul nuw i64 %18, %11
  %23 = mul nuw i64 %18, %10
  %24 = lshr i64 %20, 32
  %25 = add i64 %22, %21
  %26 = add i64 %25, %24
  %27 = icmp ult i64 %26, %22
  %28 = add nuw i64 %23, 4294967296
  %29 = select i1 %27, i64 %28, i64 %23
  %30 = lshr i64 %26, 32
  %31 = add i64 %29, %30
  %32 = shl i64 %26, 32
  %33 = and i64 %20, 4294967295
  %34 = add i64 %33, %14
  %35 = add i64 %34, %32
  %36 = icmp ult i64 %35, %14
  %37 = zext i1 %36 to i64
  %38 = add i64 %31, %37
  %39 = getelementptr i64, ptr %8, i64 %15
  %40 = load i64, ptr %39, align 8
  %41 = add i64 %35, %40
  %42 = icmp ult i64 %41, %40
  %43 = zext i1 %42 to i64
  %44 = add i64 %38, %43
  store i64 %41, ptr %39, align 8
  %45 = add i32 %13, 1
  %46 = icmp eq i32 %45, 0
  br i1 %46, label %47, label %12, !llvm.loop !5

47:                                               ; preds = %12
  ret i64 %44
}


!llvm.module.flags = !{!0, !1, !2, !3, !4}

!0 = !{i32 1, !"wchar_size", i32 2}
!1 = !{i32 8, !"cf-protection-branch", i32 1}
!2 = !{i32 4, !"function_return_thunk_extern", i32 1}
!3 = !{i32 4, !"indirect_branch_cs_prefix", i32 1}
!4 = !{i32 4, !"SkipRaxSetup", i32 1}
!5 = distinct !{!5, !6, !7}
!6 = !{!"llvm.loop.mustprogress"}
!7 = !{!"llvm.loop.unroll.disable"}
